target datalayout = "e-m:e-p270:32:32-p271:32:32-p272:64:64-i64:64-i128:128-f80:128-n8:16:32:64-S128"
target triple = "x86_64-pc-linux-gnu"

%"class.google::protobuf::internal::ImplicitWeakMessage" = type { %"class.google::protobuf::MessageLite", %"class.std::__cxx11::basic_string" }
%"class.google::protobuf::MessageLite" = type { ptr, %"class.google::protobuf::internal::InternalMetadata" }
%"class.google::protobuf::internal::InternalMetadata" = type { ptr }
%"class.std::__cxx11::basic_string" = type { %"struct.std::__cxx11::basic_string<char>::_Alloc_hider", i64, %union.anon }
%"struct.std::__cxx11::basic_string<char>::_Alloc_hider" = type { ptr }
%union.anon = type { i64, [8 x i8] }
%class.anon = type { ptr }
%"class.google::protobuf::internal::LogMessage" = type { i32, ptr, i32, %"class.std::__cxx11::basic_string" }
%"class.google::protobuf::internal::LogFinisher" = type { i8 }
%"class.google::protobuf::internal::EpsCopyInputStream" = type { ptr, ptr, ptr, i32, i32, ptr, [32 x i8], i64, i32, i32 }

@.str = private unnamed_addr constant [65 x i8] c"src/../third_party/protobuf-lite/google/protobuf/parse_context.h\00", align 1
@.str.1 = private unnamed_addr constant [36 x i8] c"CHECK failed: (chunk_size) >= (0): \00", align 1
@.str.2 = private unnamed_addr constant [27 x i8] c"CHECK failed: end >= ptr: \00", align 1

; Function Attrs: mustprogress uwtable
define linkonce_odr void @_ZZN6google8protobuf8internal18EpsCopyInputStream12AppendStringEPKcPNSt7__cxx1112basic_stringIcSt11char_traitsIcESaIcEEEENKUlS4_lE_clES4_l(ptr noundef nonnull align 8 dereferenceable(8) %0, ptr noundef %1, i64 noundef %2) #4 comdat align 2 {
  %4 = alloca ptr, align 8
  %5 = alloca ptr, align 8
  %6 = alloca i64, align 8
  store ptr %0, ptr %4, align 8
  store ptr %1, ptr %5, align 8
  store i64 %2, ptr %6, align 8
  %7 = load ptr, ptr %4, align 8
  %8 = getelementptr inbounds %class.anon, ptr %7, i32 0, i32 0
  %9 = load ptr, ptr %8, align 8
  %10 = load ptr, ptr %5, align 8
  %11 = load i64, ptr %6, align 8
  %12 = call noundef nonnull align 8 dereferenceable(32) ptr @_ZNSt7__cxx1112basic_stringIcSt11char_traitsIcESaIcEE6appendEPKcm(ptr noundef nonnull align 8 dereferenceable(32) %9, ptr noundef %10, i64 noundef %11)
  ret void
}

; Function Attrs: mustprogress uwtable
define linkonce_odr noundef ptr @_ZN6google8protobuf8internal18EpsCopyInputStream14AppendUntilEndIZNS2_12AppendStringEPKcPNSt7__cxx1112basic_stringIcSt11char_traitsIcESaIcEEEEUlS5_lE_EES5_S5_RKT_(ptr noundef nonnull align 8 dereferenceable(88) %0, ptr noundef %1, ptr noundef nonnull align 8 dereferenceable(8) %2) #4 comdat align 2 personality ptr @__gxx_personality_v0 {
  %4 = alloca ptr, align 8
  %5 = alloca ptr, align 8
  %6 = alloca ptr, align 8
  %7 = alloca ptr, align 8
  %8 = alloca i32, align 4
  %9 = alloca %"class.google::protobuf::internal::LogMessage", align 8
  %10 = alloca i1, align 1
  %11 = alloca ptr, align 8
  %12 = alloca i32, align 4
  %13 = alloca %"class.google::protobuf::internal::LogFinisher", align 1
  %14 = alloca ptr, align 8
  %15 = alloca %"class.google::protobuf::internal::LogMessage", align 8
  %16 = alloca i1, align 1
  %17 = alloca %"class.google::protobuf::internal::LogFinisher", align 1
  store ptr %0, ptr %5, align 8
  store ptr %1, ptr %6, align 8
  store ptr %2, ptr %7, align 8
  %18 = load ptr, ptr %5, align 8
  %19 = load ptr, ptr %6, align 8
  %20 = getelementptr inbounds %"class.google::protobuf::internal::EpsCopyInputStream", ptr %18, i32 0, i32 1
  %21 = load ptr, ptr %20, align 8
  %22 = ptrtoint ptr %19 to i64
  %23 = ptrtoint ptr %21 to i64
  %24 = sub i64 %22, %23
  %25 = getelementptr inbounds %"class.google::protobuf::internal::EpsCopyInputStream", ptr %18, i32 0, i32 4
  %26 = load i32, ptr %25, align 4
  %27 = sext i32 %26 to i64
  %28 = icmp sgt i64 %24, %27
  br i1 %28, label %29, label %30

29:                                               ; preds = %3
  store ptr null, ptr %4, align 8
  br label %115

30:                                               ; preds = %3
  br label %31

31:                                               ; preds = %75, %30
  %32 = getelementptr inbounds %"class.google::protobuf::internal::EpsCopyInputStream", ptr %18, i32 0, i32 4
  %33 = load i32, ptr %32, align 4
  %34 = icmp sgt i32 %33, 16
  br i1 %34, label %35, label %78

35:                                               ; preds = %31
  %36 = getelementptr inbounds %"class.google::protobuf::internal::EpsCopyInputStream", ptr %18, i32 0, i32 1
  %37 = load ptr, ptr %36, align 8
  %38 = getelementptr inbounds i8, ptr %37, i64 16
  %39 = load ptr, ptr %6, align 8
  %40 = ptrtoint ptr %38 to i64
  %41 = ptrtoint ptr %39 to i64
  %42 = sub i64 %40, %41
  %43 = trunc i64 %42 to i32
  store i32 %43, ptr %8, align 4
  br label %44

44:                                               ; preds = %56, %35
  br i1 false, label %45, label %64

45:                                               ; preds = %44
  %46 = load i32, ptr %8, align 4
  %47 = icmp sge i32 %46, 0
  store i1 false, ptr %10, align 1
  br i1 %47, label %48, label %49

48:                                               ; preds = %45
  br label %53

49:                                               ; preds = %45
  call void @_ZN6google8protobuf8internal10LogMessageC1ENS0_8LogLevelEPKci(ptr noundef nonnull align 8 dereferenceable(56) %9, i32 noundef 3, ptr noundef @.str, i32 noundef 351)
  store i1 true, ptr %10, align 1
  %50 = invoke noundef nonnull align 8 dereferenceable(56) ptr @_ZN6google8protobuf8internal10LogMessagelsEPKc(ptr noundef nonnull align 8 dereferenceable(56) %9, ptr noundef @.str.1)
          to label %51 unwind label %57

51:                                               ; preds = %49
  invoke void @_ZN6google8protobuf8internal11LogFinisheraSERNS1_10LogMessageE(ptr noundef nonnull align 1 dereferenceable(1) %13, ptr noundef nonnull align 8 dereferenceable(56) %50)
          to label %52 unwind label %57

52:                                               ; preds = %51
  br label %53

53:                                               ; preds = %52, %48
  %54 = load i1, ptr %10, align 1
  br i1 %54, label %55, label %56

55:                                               ; preds = %53
  call void @_ZN6google8protobuf8internal10LogMessageD1Ev(ptr noundef nonnull align 8 dereferenceable(56) %9) #3
  br label %56

56:                                               ; preds = %55, %53
  br label %44, !llvm.loop !4

57:                                               ; preds = %51, %49
  %58 = landingpad { ptr, i32 }
          cleanup
  %59 = extractvalue { ptr, i32 } %58, 0
  store ptr %59, ptr %11, align 8
  %60 = extractvalue { ptr, i32 } %58, 1
  store i32 %60, ptr %12, align 4
  %61 = load i1, ptr %10, align 1
  br i1 %61, label %62, label %63

62:                                               ; preds = %57
  call void @_ZN6google8protobuf8internal10LogMessageD1Ev(ptr noundef nonnull align 8 dereferenceable(56) %9) #3
  br label %63

63:                                               ; preds = %62, %57
  br label %117

64:                                               ; preds = %44
  %65 = load ptr, ptr %7, align 8
  %66 = load ptr, ptr %6, align 8
  %67 = load i32, ptr %8, align 4
  %68 = sext i32 %67 to i64
  call void @_ZZN6google8protobuf8internal18EpsCopyInputStream12AppendStringEPKcPNSt7__cxx1112basic_stringIcSt11char_traitsIcESaIcEEEENKUlS4_lE_clES4_l(ptr noundef nonnull align 8 dereferenceable(8) %65, ptr noundef %66, i64 noundef %68)
  %69 = call noundef ptr @_ZN6google8protobuf8internal18EpsCopyInputStream4NextEv(ptr noundef nonnull align 8 dereferenceable(88) %18)
  store ptr %69, ptr %6, align 8
  %70 = load ptr, ptr %6, align 8
  %71 = icmp eq ptr %70, null
  br i1 %71, label %72, label %75

72:                                               ; preds = %64
  %73 = getelementptr inbounds %"class.google::protobuf::internal::EpsCopyInputStream", ptr %18, i32 0, i32 0
  %74 = load ptr, ptr %73, align 8
  store ptr %74, ptr %4, align 8
  br label %115

75:                                               ; preds = %64
  %76 = load ptr, ptr %6, align 8
  %77 = getelementptr inbounds i8, ptr %76, i64 16
  store ptr %77, ptr %6, align 8
  br label %31, !llvm.loop !6

78:                                               ; preds = %31
  %79 = getelementptr inbounds %"class.google::protobuf::internal::EpsCopyInputStream", ptr %18, i32 0, i32 1
  %80 = load ptr, ptr %79, align 8
  %81 = getelementptr inbounds %"class.google::protobuf::internal::EpsCopyInputStream", ptr %18, i32 0, i32 4
  %82 = load i32, ptr %81, align 4
  %83 = sext i32 %82 to i64
  %84 = getelementptr inbounds i8, ptr %80, i64 %83
  store ptr %84, ptr %14, align 8
  br label %85

85:                                               ; preds = %98, %78
  br i1 false, label %86, label %106

86:                                               ; preds = %85
  %87 = load ptr, ptr %14, align 8
  %88 = load ptr, ptr %6, align 8
  %89 = icmp uge ptr %87, %88
  store i1 false, ptr %16, align 1
  br i1 %89, label %90, label %91

90:                                               ; preds = %86
  br label %95

91:                                               ; preds = %86
  call void @_ZN6google8protobuf8internal10LogMessageC1ENS0_8LogLevelEPKci(ptr noundef nonnull align 8 dereferenceable(56) %15, i32 noundef 3, ptr noundef @.str, i32 noundef 358)
  store i1 true, ptr %16, align 1
  %92 = invoke noundef nonnull align 8 dereferenceable(56) ptr @_ZN6google8protobuf8internal10LogMessagelsEPKc(ptr noundef nonnull align 8 dereferenceable(56) %15, ptr noundef @.str.2)
          to label %93 unwind label %99

93:                                               ; preds = %91
  invoke void @_ZN6google8protobuf8internal11LogFinisheraSERNS1_10LogMessageE(ptr noundef nonnull align 1 dereferenceable(1) %17, ptr noundef nonnull align 8 dereferenceable(56) %92)
          to label %94 unwind label %99

94:                                               ; preds = %93
  br label %95

95:                                               ; preds = %94, %90
  %96 = load i1, ptr %16, align 1
  br i1 %96, label %97, label %98

97:                                               ; preds = %95
  call void @_ZN6google8protobuf8internal10LogMessageD1Ev(ptr noundef nonnull align 8 dereferenceable(56) %15) #3
  br label %98

98:                                               ; preds = %97, %95
  br label %85, !llvm.loop !7

99:                                               ; preds = %93, %91
  %100 = landingpad { ptr, i32 }
          cleanup
  %101 = extractvalue { ptr, i32 } %100, 0
  store ptr %101, ptr %11, align 8
  %102 = extractvalue { ptr, i32 } %100, 1
  store i32 %102, ptr %12, align 4
  %103 = load i1, ptr %16, align 1
  br i1 %103, label %104, label %105

104:                                              ; preds = %99
  call void @_ZN6google8protobuf8internal10LogMessageD1Ev(ptr noundef nonnull align 8 dereferenceable(56) %15) #3
  br label %105

105:                                              ; preds = %104, %99
  br label %117

106:                                              ; preds = %85
  %107 = load ptr, ptr %7, align 8
  %108 = load ptr, ptr %6, align 8
  %109 = load ptr, ptr %14, align 8
  %110 = load ptr, ptr %6, align 8
  %111 = ptrtoint ptr %109 to i64
  %112 = ptrtoint ptr %110 to i64
  %113 = sub i64 %111, %112
  call void @_ZZN6google8protobuf8internal18EpsCopyInputStream12AppendStringEPKcPNSt7__cxx1112basic_stringIcSt11char_traitsIcESaIcEEEENKUlS4_lE_clES4_l(ptr noundef nonnull align 8 dereferenceable(8) %107, ptr noundef %108, i64 noundef %113)
  %114 = load ptr, ptr %14, align 8
  store ptr %114, ptr %4, align 8
  br label %115

115:                                              ; preds = %106, %72, %29
  %116 = load ptr, ptr %4, align 8
  ret ptr %116

117:                                              ; preds = %105, %63
  %118 = load ptr, ptr %11, align 8
  %119 = load i32, ptr %12, align 4
  %120 = insertvalue { ptr, i32 } poison, ptr %118, 0
  %121 = insertvalue { ptr, i32 } %120, i32 %119, 1
  resume { ptr, i32 } %121
}

; Function Attrs: mustprogress uwtable
define linkonce_odr noundef ptr @_ZN6google8protobuf8internal18EpsCopyInputStream12AppendStringEPKcPNSt7__cxx1112basic_stringIcSt11char_traitsIcESaIcEEE(ptr noundef nonnull align 8 dereferenceable(88) %0, ptr noundef %1, ptr noundef %2) #4 comdat align 2 {
  %4 = alloca ptr, align 8
  %5 = alloca ptr, align 8
  %6 = alloca ptr, align 8
  %7 = alloca %class.anon, align 8
  store ptr %0, ptr %4, align 8
  store ptr %1, ptr %5, align 8
  store ptr %2, ptr %6, align 8
  %8 = load ptr, ptr %4, align 8
  %9 = load ptr, ptr %5, align 8
  %10 = getelementptr inbounds %class.anon, ptr %7, i32 0, i32 0
  %11 = load ptr, ptr %6, align 8
  store ptr %11, ptr %10, align 8
  %12 = call noundef ptr @_ZN6google8protobuf8internal18EpsCopyInputStream14AppendUntilEndIZNS2_12AppendStringEPKcPNSt7__cxx1112basic_stringIcSt11char_traitsIcESaIcEEEEUlS5_lE_EES5_S5_RKT_(ptr noundef nonnull align 8 dereferenceable(88) %8, ptr noundef %9, ptr noundef nonnull align 8 dereferenceable(8) %7)
  ret ptr %12
}

; Function Attrs: mustprogress uwtable
define noundef ptr @_ZN6google8protobuf8internal19ImplicitWeakMessage14_InternalParseEPKcPNS1_12ParseContextE(ptr noundef nonnull align 8 dereferenceable(48) %0, ptr noundef %1, ptr noundef %2) unnamed_addr #4 align 2 {
  %4 = alloca ptr, align 8
  %5 = alloca ptr, align 8
  %6 = alloca ptr, align 8
  store ptr %0, ptr %4, align 8
  store ptr %1, ptr %5, align 8
  store ptr %2, ptr %6, align 8
  %7 = load ptr, ptr %4, align 8
  %8 = load ptr, ptr %6, align 8
  %9 = load ptr, ptr %5, align 8
  %10 = getelementptr inbounds %"class.google::protobuf::internal::ImplicitWeakMessage", ptr %7, i32 0, i32 1
  %11 = call noundef ptr @_ZN6google8protobuf8internal18EpsCopyInputStream12AppendStringEPKcPNSt7__cxx1112basic_stringIcSt11char_traitsIcESaIcEEE(ptr noundef nonnull align 8 dereferenceable(88) %8, ptr noundef %9, ptr noundef %10)
  ret ptr %11
}