; Function Attrs: mustprogress uwtable
define noundef ptr @_ZN6google8protobuf8internal19ImplicitWeakMessage14_InternalParseEPKcPNS1_12ParseContextE(ptr noundef nonnull align 8 dereferenceable(48) %0, ptr noundef %1, ptr noundef %2) unnamed_addr #3 align 2 personality ptr @__gxx_personality_v0 {
  %4 = getelementptr inbounds i8, ptr %0, i64 16
  %5 = getelementptr inbounds i8, ptr %2, i64 8
  %6 = load ptr, ptr %5, align 8
  %7 = ptrtoint ptr %1 to i64
  %8 = ptrtoint ptr %6 to i64
  %9 = sub i64 %7, %8
  %10 = getelementptr inbounds i8, ptr %2, i64 28
  %11 = load i32, ptr %10, align 4
  %12 = sext i32 %11 to i64
  %13 = icmp sgt i64 %9, %12
  br i1 %13, label %_ZN6google8protobuf8internal18EpsCopyInputStream12AppendStringEPKcPNSt7__cxx1112basic_stringIcSt11char_traitsIcESaIcEEE.exit, label %.preheader.i.i

.preheader.i.i:                                   ; preds = %3
  %14 = icmp sgt i32 %11, 16
  br i1 %14, label %.lr.ph.i.i, label %._crit_edge.i.i

.lr.ph.i.i:                                       ; preds = %.preheader.i.i, %26
  %.01318.i.i = phi ptr [ %27, %26 ], [ %1, %.preheader.i.i ]
  %15 = load ptr, ptr %5, align 8
  %16 = getelementptr inbounds i8, ptr %15, i64 16
  %17 = ptrtoint ptr %16 to i64
  %18 = ptrtoint ptr %.01318.i.i to i64
  %19 = sub i64 %17, %18
  %sext.i.i = shl i64 %19, 32
  %20 = ashr exact i64 %sext.i.i, 32
  %21 = tail call noundef nonnull align 8 dereferenceable(32) ptr @_ZNSt7__cxx1112basic_stringIcSt11char_traitsIcESaIcEE6appendEPKcm(ptr noundef nonnull align 8 dereferenceable(32) %4, ptr noundef %.01318.i.i, i64 noundef %20)
  %22 = tail call noundef ptr @_ZN6google8protobuf8internal18EpsCopyInputStream4NextEv(ptr noundef nonnull align 8 dereferenceable(88) %2)
  %23 = icmp eq ptr %22, null
  br i1 %23, label %24, label %26

24:                                               ; preds = %.lr.ph.i.i
  %25 = load ptr, ptr %2, align 8
  br label %_ZN6google8protobuf8internal18EpsCopyInputStream12AppendStringEPKcPNSt7__cxx1112basic_stringIcSt11char_traitsIcESaIcEEE.exit

26:                                               ; preds = %.lr.ph.i.i
  %27 = getelementptr inbounds i8, ptr %22, i64 16
  %.pr.i.i = load i32, ptr %10, align 4
  %28 = icmp sgt i32 %.pr.i.i, 16
  br i1 %28, label %.lr.ph.i.i, label %._crit_edge.loopexit.i.i, !llvm.loop !4

._crit_edge.loopexit.i.i:                         ; preds = %26
  %.pre.i.i = load ptr, ptr %5, align 8
  %.pre21.i.i = sext i32 %.pr.i.i to i64
  %.pre22.i.i = ptrtoint ptr %27 to i64
  br label %._crit_edge.i.i

._crit_edge.i.i:                                  ; preds = %._crit_edge.loopexit.i.i, %.preheader.i.i
  %.pre-phi23.i.i = phi i64 [ %.pre22.i.i, %._crit_edge.loopexit.i.i ], [ %7, %.preheader.i.i ]
  %.pre-phi.i.i = phi i64 [ %.pre21.i.i, %._crit_edge.loopexit.i.i ], [ %12, %.preheader.i.i ]
  %29 = phi ptr [ %.pre.i.i, %._crit_edge.loopexit.i.i ], [ %6, %.preheader.i.i ]
  %.013.lcssa.i.i = phi ptr [ %27, %._crit_edge.loopexit.i.i ], [ %1, %.preheader.i.i ]
  %30 = getelementptr inbounds i8, ptr %29, i64 %.pre-phi.i.i
  %31 = ptrtoint ptr %30 to i64
  %32 = sub i64 %31, %.pre-phi23.i.i
  %33 = tail call noundef nonnull align 8 dereferenceable(32) ptr @_ZNSt7__cxx1112basic_stringIcSt11char_traitsIcESaIcEE6appendEPKcm(ptr noundef nonnull align 8 dereferenceable(32) %4, ptr noundef %.013.lcssa.i.i, i64 noundef %32)
  br label %_ZN6google8protobuf8internal18EpsCopyInputStream12AppendStringEPKcPNSt7__cxx1112basic_stringIcSt11char_traitsIcESaIcEEE.exit

_ZN6google8protobuf8internal18EpsCopyInputStream12AppendStringEPKcPNSt7__cxx1112basic_stringIcSt11char_traitsIcESaIcEEE.exit: ; preds = %3, %24, %._crit_edge.i.i
  %.0.i.i = phi ptr [ %25, %24 ], [ %30, %._crit_edge.i.i ], [ null, %3 ]
  ret ptr %.0.i.i
}